target datalayout = "e-m:e-p270:32:32-p271:32:32-p272:64:64-i64:64-i128:128-f80:128-n8:16:32:64-S128"
target triple = "x86_64-pc-linux-gnu"

@_prte_crc_table = internal global [256 x i32] zeroinitializer, align 16
@_prte_crc_table_initialized = internal global i8 0, align 1

; Function Attrs: nounwind uwtable
define void @prte_initialize_crc_table() #0 {
  %1 = alloca i32, align 4
  %2 = alloca i32, align 4
  %3 = alloca i32, align 4
  call void @llvm.lifetime.start.p0(i64 4, ptr %1) #3
  call void @llvm.lifetime.start.p0(i64 4, ptr %2) #3
  call void @llvm.lifetime.start.p0(i64 4, ptr %3) #3
  store i32 0, ptr %1, align 4, !tbaa !27
  br label %4

4:                                                ; preds = %33, %0
  %5 = load i32, ptr %1, align 4, !tbaa !27
  %6 = icmp slt i32 %5, 256
  br i1 %6, label %7, label %36

7:                                                ; preds = %4
  %8 = load i32, ptr %1, align 4, !tbaa !27
  %9 = shl i32 %8, 24
  store i32 %9, ptr %3, align 4, !tbaa !27
  store i32 0, ptr %2, align 4, !tbaa !27
  br label %10

10:                                               ; preds = %25, %7
  %11 = load i32, ptr %2, align 4, !tbaa !27
  %12 = icmp slt i32 %11, 8
  br i1 %12, label %13, label %28

13:                                               ; preds = %10
  %14 = load i32, ptr %3, align 4, !tbaa !27
  %15 = and i32 %14, -2147483648
  %16 = icmp ne i32 %15, 0
  br i1 %16, label %17, label %21

17:                                               ; preds = %13
  %18 = load i32, ptr %3, align 4, !tbaa !27
  %19 = shl i32 %18, 1
  %20 = xor i32 %19, 79764919
  store i32 %20, ptr %3, align 4, !tbaa !27
  br label %24

21:                                               ; preds = %13
  %22 = load i32, ptr %3, align 4, !tbaa !27
  %23 = shl i32 %22, 1
  store i32 %23, ptr %3, align 4, !tbaa !27
  br label %24

24:                                               ; preds = %21, %17
  br label %25

25:                                               ; preds = %24
  %26 = load i32, ptr %2, align 4, !tbaa !27
  %27 = add nsw i32 %26, 1
  store i32 %27, ptr %2, align 4, !tbaa !27
  br label %10, !llvm.loop !52

28:                                               ; preds = %10
  %29 = load i32, ptr %3, align 4, !tbaa !27
  %30 = load i32, ptr %1, align 4, !tbaa !27
  %31 = sext i32 %30 to i64
  %32 = getelementptr inbounds [256 x i32], ptr @_prte_crc_table, i64 0, i64 %31
  store i32 %29, ptr %32, align 4, !tbaa !27
  br label %33

33:                                               ; preds = %28
  %34 = load i32, ptr %1, align 4, !tbaa !27
  %35 = add nsw i32 %34, 1
  store i32 %35, ptr %1, align 4, !tbaa !27
  br label %4, !llvm.loop !53

36:                                               ; preds = %4
  store i8 1, ptr @_prte_crc_table_initialized, align 1, !tbaa !54
  call void @llvm.lifetime.end.p0(i64 4, ptr %3) #3
  call void @llvm.lifetime.end.p0(i64 4, ptr %2) #3
  call void @llvm.lifetime.end.p0(i64 4, ptr %1) #3
  ret void
}