; Function Attrs: nofree norecurse nosync nounwind memory(write, argmem: none, inaccessiblemem: none) uwtable
define void @prte_initialize_crc_table() local_unnamed_addr #3 {
  br label %1

1:                                                ; preds = %0, %7
  %indvars.iv = phi i64 [ 0, %0 ], [ %indvars.iv.next, %7 ]
  %indvars.iv.tr = trunc i64 %indvars.iv to i32
  %2 = shl i32 %indvars.iv.tr, 24
  br label %3

3:                                                ; preds = %1, %3
  %.014 = phi i32 [ %2, %1 ], [ %.1, %3 ]
  %.01013 = phi i32 [ 0, %1 ], [ %6, %3 ]
  %4 = shl i32 %.014, 1
  %5 = xor i32 %4, 79764919
  %.not12 = icmp slt i32 %.014, 0
  %.1 = select i1 %.not12, i32 %5, i32 %4
  %6 = add nuw nsw i32 %.01013, 1
  %exitcond.not = icmp eq i32 %6, 8
  br i1 %exitcond.not, label %7, label %3, !llvm.loop !46

7:                                                ; preds = %3
  %8 = getelementptr inbounds nuw [256 x i32], ptr @_prte_crc_table, i64 0, i64 %indvars.iv
  store i32 %.1, ptr %8, align 4, !tbaa !21
  %indvars.iv.next = add nuw nsw i64 %indvars.iv, 1
  %exitcond17.not = icmp eq i64 %indvars.iv.next, 256
  br i1 %exitcond17.not, label %9, label %1, !llvm.loop !47

9:                                                ; preds = %7
  store i1 true, ptr @_prte_crc_table_initialized, align 1
  ret void
}